target datalayout = "e-m:e-p270:32:32-p271:32:32-p272:64:64-i64:64-i128:128-f80:128-n8:16:32:64-S128"
target triple = "x86_64-pc-linux-gnu"

; Function Attrs: alwaysinline nounwind uwtable
define internal void @BrotliUnalignedWrite64(ptr noundef %0, i64 noundef %1) #2 {
  %3 = alloca ptr, align 8
  %4 = alloca i64, align 8
  store ptr %0, ptr %3, align 8, !tbaa !38
  store i64 %1, ptr %4, align 8, !tbaa !10
  %5 = load ptr, ptr %3, align 8, !tbaa !38
  call void @llvm.memcpy.p0.p0.i64(ptr align 1 %5, ptr align 8 %4, i64 8, i1 false)
  ret void
}

; Function Attrs: nounwind uwtable
define internal void @BrotliStoreMetaBlockHeader(i64 noundef %0, i32 noundef %1, ptr noundef %2, ptr noundef %3) #0 {
  %5 = alloca i64, align 8
  %6 = alloca i32, align 4
  %7 = alloca ptr, align 8
  %8 = alloca ptr, align 8
  %9 = alloca i64, align 8
  store i64 %0, ptr %5, align 8, !tbaa !10
  store i32 %1, ptr %6, align 4, !tbaa !12
  store ptr %2, ptr %7, align 8, !tbaa !16
  store ptr %3, ptr %8, align 8, !tbaa !8
  call void @llvm.lifetime.start.p0(i64 8, ptr %9) #10
  store i64 6, ptr %9, align 8, !tbaa !10
  %10 = load ptr, ptr %7, align 8, !tbaa !16
  %11 = load ptr, ptr %8, align 8, !tbaa !8
  call void @BrotliWriteBits(i64 noundef 1, i64 noundef 0, ptr noundef %10, ptr noundef %11)
  %12 = load i64, ptr %5, align 8, !tbaa !10
  %13 = icmp ule i64 %12, 65536
  br i1 %13, label %14, label %15

14:                                               ; preds = %4
  store i64 4, ptr %9, align 8, !tbaa !10
  br label %20

15:                                               ; preds = %4
  %16 = load i64, ptr %5, align 8, !tbaa !10
  %17 = icmp ule i64 %16, 1048576
  br i1 %17, label %18, label %19

18:                                               ; preds = %15
  store i64 5, ptr %9, align 8, !tbaa !10
  br label %19

19:                                               ; preds = %18, %15
  br label %20

20:                                               ; preds = %19, %14
  %21 = load i64, ptr %9, align 8, !tbaa !10
  %22 = sub i64 %21, 4
  %23 = load ptr, ptr %7, align 8, !tbaa !16
  %24 = load ptr, ptr %8, align 8, !tbaa !8
  call void @BrotliWriteBits(i64 noundef 2, i64 noundef %22, ptr noundef %23, ptr noundef %24)
  %25 = load i64, ptr %9, align 8, !tbaa !10
  %26 = mul i64 %25, 4
  %27 = load i64, ptr %5, align 8, !tbaa !10
  %28 = sub i64 %27, 1
  %29 = load ptr, ptr %7, align 8, !tbaa !16
  %30 = load ptr, ptr %8, align 8, !tbaa !8
  call void @BrotliWriteBits(i64 noundef %26, i64 noundef %28, ptr noundef %29, ptr noundef %30)
  %31 = load i32, ptr %6, align 4, !tbaa !12
  %32 = sext i32 %31 to i64
  %33 = load ptr, ptr %7, align 8, !tbaa !16
  %34 = load ptr, ptr %8, align 8, !tbaa !8
  call void @BrotliWriteBits(i64 noundef 1, i64 noundef %32, ptr noundef %33, ptr noundef %34)
  call void @llvm.lifetime.end.p0(i64 8, ptr %9) #10
  ret void
}

; Function Attrs: alwaysinline nounwind uwtable
define internal void @BrotliWriteBits(i64 noundef %0, i64 noundef %1, ptr noalias noundef %2, ptr noalias noundef %3) #2 {
  %5 = alloca i64, align 8
  %6 = alloca i64, align 8
  %7 = alloca ptr, align 8
  %8 = alloca ptr, align 8
  %9 = alloca ptr, align 8
  %10 = alloca i64, align 8
  store i64 %0, ptr %5, align 8, !tbaa !10
  store i64 %1, ptr %6, align 8, !tbaa !10
  store ptr %2, ptr %7, align 8, !tbaa !16
  store ptr %3, ptr %8, align 8, !tbaa !8
  call void @llvm.lifetime.start.p0(i64 8, ptr %9) #10
  %11 = load ptr, ptr %8, align 8, !tbaa !8
  %12 = load ptr, ptr %7, align 8, !tbaa !16
  %13 = load i64, ptr %12, align 8, !tbaa !10
  %14 = lshr i64 %13, 3
  %15 = getelementptr inbounds nuw i8, ptr %11, i64 %14
  store ptr %15, ptr %9, align 8, !tbaa !8
  call void @llvm.lifetime.start.p0(i64 8, ptr %10) #10
  %16 = load ptr, ptr %9, align 8, !tbaa !8
  %17 = load i8, ptr %16, align 1, !tbaa !18
  %18 = zext i8 %17 to i64
  store i64 %18, ptr %10, align 8, !tbaa !10
  %19 = load i64, ptr %6, align 8, !tbaa !10
  %20 = load ptr, ptr %7, align 8, !tbaa !16
  %21 = load i64, ptr %20, align 8, !tbaa !10
  %22 = and i64 %21, 7
  %23 = shl i64 %19, %22
  %24 = load i64, ptr %10, align 8, !tbaa !10
  %25 = or i64 %24, %23
  store i64 %25, ptr %10, align 8, !tbaa !10
  %26 = load ptr, ptr %9, align 8, !tbaa !8
  %27 = load i64, ptr %10, align 8, !tbaa !10
  call void @BrotliUnalignedWrite64(ptr noundef %26, i64 noundef %27)
  %28 = load i64, ptr %5, align 8, !tbaa !10
  %29 = load ptr, ptr %7, align 8, !tbaa !16
  %30 = load i64, ptr %29, align 8, !tbaa !10
  %31 = add i64 %30, %28
  store i64 %31, ptr %29, align 8, !tbaa !10
  call void @llvm.lifetime.end.p0(i64 8, ptr %10) #10
  call void @llvm.lifetime.end.p0(i64 8, ptr %9) #10
  ret void
}

; Function Attrs: nounwind uwtable
define internal void @EmitUncompressedMetaBlock(ptr noundef %0, i64 noundef %1, ptr noundef %2, ptr noundef %3) #0 {
  %5 = alloca ptr, align 8
  %6 = alloca i64, align 8
  %7 = alloca ptr, align 8
  %8 = alloca ptr, align 8
  store ptr %0, ptr %5, align 8, !tbaa !8
  store i64 %1, ptr %6, align 8, !tbaa !10
  store ptr %2, ptr %7, align 8, !tbaa !16
  store ptr %3, ptr %8, align 8, !tbaa !8
  %9 = load i64, ptr %6, align 8, !tbaa !10
  %10 = load ptr, ptr %7, align 8, !tbaa !16
  %11 = load ptr, ptr %8, align 8, !tbaa !8
  call void @BrotliStoreMetaBlockHeader(i64 noundef %9, i32 noundef 1, ptr noundef %10, ptr noundef %11)
  %12 = load ptr, ptr %7, align 8, !tbaa !16
  %13 = load i64, ptr %12, align 8, !tbaa !10
  %14 = add i64 %13, 7
  %15 = and i64 %14, 4294967288
  %16 = load ptr, ptr %7, align 8, !tbaa !16
  store i64 %15, ptr %16, align 8, !tbaa !10
  %17 = load ptr, ptr %8, align 8, !tbaa !8
  %18 = load ptr, ptr %7, align 8, !tbaa !16
  %19 = load i64, ptr %18, align 8, !tbaa !10
  %20 = lshr i64 %19, 3
  %21 = getelementptr inbounds nuw i8, ptr %17, i64 %20
  %22 = load ptr, ptr %5, align 8, !tbaa !8
  %23 = load i64, ptr %6, align 8, !tbaa !10
  call void @llvm.memcpy.p0.p0.i64(ptr align 1 %21, ptr align 1 %22, i64 %23, i1 false)
  %24 = load i64, ptr %6, align 8, !tbaa !10
  %25 = shl i64 %24, 3
  %26 = load ptr, ptr %7, align 8, !tbaa !16
  %27 = load i64, ptr %26, align 8, !tbaa !10
  %28 = add i64 %27, %25
  store i64 %28, ptr %26, align 8, !tbaa !10
  %29 = load ptr, ptr %8, align 8, !tbaa !8
  %30 = load ptr, ptr %7, align 8, !tbaa !16
  %31 = load i64, ptr %30, align 8, !tbaa !10
  %32 = lshr i64 %31, 3
  %33 = getelementptr inbounds nuw i8, ptr %29, i64 %32
  store i8 0, ptr %33, align 1, !tbaa !18
  ret void
}

; Function Attrs: nounwind uwtable
define internal void @RewindBitPosition(i64 noundef %0, ptr noundef %1, ptr noundef %2) #0 {
  %4 = alloca i64, align 8
  %5 = alloca ptr, align 8
  %6 = alloca ptr, align 8
  %7 = alloca i64, align 8
  %8 = alloca i64, align 8
  store i64 %0, ptr %4, align 8, !tbaa !10
  store ptr %1, ptr %5, align 8, !tbaa !16
  store ptr %2, ptr %6, align 8, !tbaa !8
  call void @llvm.lifetime.start.p0(i64 8, ptr %7) #10
  %9 = load i64, ptr %4, align 8, !tbaa !10
  %10 = and i64 %9, 7
  store i64 %10, ptr %7, align 8, !tbaa !10
  call void @llvm.lifetime.start.p0(i64 8, ptr %8) #10
  %11 = load i64, ptr %7, align 8, !tbaa !10
  %12 = trunc i64 %11 to i32
  %13 = shl i32 1, %12
  %14 = sub i32 %13, 1
  %15 = zext i32 %14 to i64
  store i64 %15, ptr %8, align 8, !tbaa !10
  %16 = load i64, ptr %8, align 8, !tbaa !10
  %17 = trunc i64 %16 to i8
  %18 = zext i8 %17 to i32
  %19 = load ptr, ptr %6, align 8, !tbaa !8
  %20 = load i64, ptr %4, align 8, !tbaa !10
  %21 = lshr i64 %20, 3
  %22 = getelementptr inbounds nuw i8, ptr %19, i64 %21
  %23 = load i8, ptr %22, align 1, !tbaa !18
  %24 = zext i8 %23 to i32
  %25 = and i32 %24, %18
  %26 = trunc i32 %25 to i8
  store i8 %26, ptr %22, align 1, !tbaa !18
  %27 = load i64, ptr %4, align 8, !tbaa !10
  %28 = load ptr, ptr %5, align 8, !tbaa !16
  store i64 %27, ptr %28, align 8, !tbaa !10
  call void @llvm.lifetime.end.p0(i64 8, ptr %8) #10
  call void @llvm.lifetime.end.p0(i64 8, ptr %7) #10
  ret void
}

; Function Attrs: alwaysinline nounwind uwtable
define internal i32 @Log2FloorNonZero(i64 noundef %0) #2 {
  %2 = alloca i64, align 8
  store i64 %0, ptr %2, align 8, !tbaa !10
  %3 = load i64, ptr %2, align 8, !tbaa !10
  %4 = trunc i64 %3 to i32
  %5 = call i32 @llvm.ctlz.i32(i32 %4, i1 true)
  %6 = xor i32 31, %5
  ret i32 %6
}

; Function Attrs: nounwind uwtable
define hidden void @BrotliCompressFragmentTwoPass(ptr noundef %0, ptr noundef %1, i64 noundef %2, i32 noundef %3, ptr noundef %4, ptr noundef %5, ptr noundef %6, i64 noundef %7, ptr noundef %8, ptr noundef %9) #0 {
  %11 = alloca ptr, align 8
  %12 = alloca ptr, align 8
  %13 = alloca i64, align 8
  %14 = alloca i32, align 4
  %15 = alloca ptr, align 8
  %16 = alloca ptr, align 8
  %17 = alloca ptr, align 8
  %18 = alloca i64, align 8
  %19 = alloca ptr, align 8
  %20 = alloca ptr, align 8
  %21 = alloca i64, align 8
  %22 = alloca i64, align 8
  store ptr %0, ptr %11, align 8, !tbaa !3
  store ptr %1, ptr %12, align 8, !tbaa !8
  store i64 %2, ptr %13, align 8, !tbaa !10
  store i32 %3, ptr %14, align 4, !tbaa !12
  store ptr %4, ptr %15, align 8, !tbaa !14
  store ptr %5, ptr %16, align 8, !tbaa !8
  store ptr %6, ptr %17, align 8, !tbaa !14
  store i64 %7, ptr %18, align 8, !tbaa !10
  store ptr %8, ptr %19, align 8, !tbaa !16
  store ptr %9, ptr %20, align 8, !tbaa !8
  call void @llvm.lifetime.start.p0(i64 8, ptr %21) #10
  %23 = load ptr, ptr %19, align 8, !tbaa !16
  %24 = load i64, ptr %23, align 8, !tbaa !10
  store i64 %24, ptr %21, align 8, !tbaa !10
  call void @llvm.lifetime.start.p0(i64 8, ptr %22) #10
  %25 = load i64, ptr %18, align 8, !tbaa !10
  %26 = call i32 @Log2FloorNonZero(i64 noundef %25)
  %27 = zext i32 %26 to i64
  store i64 %27, ptr %22, align 8, !tbaa !10
  %28 = load i64, ptr %22, align 8, !tbaa !10
  switch i64 %28, label %129 [
    i64 8, label %29
    i64 9, label %39
    i64 10, label %49
    i64 11, label %59
    i64 12, label %69
    i64 13, label %79
    i64 14, label %89
    i64 15, label %99
    i64 16, label %109
    i64 17, label %119
  ]

29:                                               ; preds = %10
  %30 = load ptr, ptr %11, align 8, !tbaa !3
  %31 = load ptr, ptr %12, align 8, !tbaa !8
  %32 = load i64, ptr %13, align 8, !tbaa !10
  %33 = load i32, ptr %14, align 4, !tbaa !12
  %34 = load ptr, ptr %15, align 8, !tbaa !14
  %35 = load ptr, ptr %16, align 8, !tbaa !8
  %36 = load ptr, ptr %17, align 8, !tbaa !14
  %37 = load ptr, ptr %19, align 8, !tbaa !16
  %38 = load ptr, ptr %20, align 8, !tbaa !8
  call void @BrotliCompressFragmentTwoPassImpl8(ptr noundef %30, ptr noundef %31, i64 noundef %32, i32 noundef %33, ptr noundef %34, ptr noundef %35, ptr noundef %36, ptr noundef %37, ptr noundef %38)
  br label %130

39:                                               ; preds = %10
  %40 = load ptr, ptr %11, align 8, !tbaa !3
  %41 = load ptr, ptr %12, align 8, !tbaa !8
  %42 = load i64, ptr %13, align 8, !tbaa !10
  %43 = load i32, ptr %14, align 4, !tbaa !12
  %44 = load ptr, ptr %15, align 8, !tbaa !14
  %45 = load ptr, ptr %16, align 8, !tbaa !8
  %46 = load ptr, ptr %17, align 8, !tbaa !14
  %47 = load ptr, ptr %19, align 8, !tbaa !16
  %48 = load ptr, ptr %20, align 8, !tbaa !8
  call void @BrotliCompressFragmentTwoPassImpl9(ptr noundef %40, ptr noundef %41, i64 noundef %42, i32 noundef %43, ptr noundef %44, ptr noundef %45, ptr noundef %46, ptr noundef %47, ptr noundef %48)
  br label %130

49:                                               ; preds = %10
  %50 = load ptr, ptr %11, align 8, !tbaa !3
  %51 = load ptr, ptr %12, align 8, !tbaa !8
  %52 = load i64, ptr %13, align 8, !tbaa !10
  %53 = load i32, ptr %14, align 4, !tbaa !12
  %54 = load ptr, ptr %15, align 8, !tbaa !14
  %55 = load ptr, ptr %16, align 8, !tbaa !8
  %56 = load ptr, ptr %17, align 8, !tbaa !14
  %57 = load ptr, ptr %19, align 8, !tbaa !16
  %58 = load ptr, ptr %20, align 8, !tbaa !8
  call void @BrotliCompressFragmentTwoPassImpl10(ptr noundef %50, ptr noundef %51, i64 noundef %52, i32 noundef %53, ptr noundef %54, ptr noundef %55, ptr noundef %56, ptr noundef %57, ptr noundef %58)
  br label %130

59:                                               ; preds = %10
  %60 = load ptr, ptr %11, align 8, !tbaa !3
  %61 = load ptr, ptr %12, align 8, !tbaa !8
  %62 = load i64, ptr %13, align 8, !tbaa !10
  %63 = load i32, ptr %14, align 4, !tbaa !12
  %64 = load ptr, ptr %15, align 8, !tbaa !14
  %65 = load ptr, ptr %16, align 8, !tbaa !8
  %66 = load ptr, ptr %17, align 8, !tbaa !14
  %67 = load ptr, ptr %19, align 8, !tbaa !16
  %68 = load ptr, ptr %20, align 8, !tbaa !8
  call void @BrotliCompressFragmentTwoPassImpl11(ptr noundef %60, ptr noundef %61, i64 noundef %62, i32 noundef %63, ptr noundef %64, ptr noundef %65, ptr noundef %66, ptr noundef %67, ptr noundef %68)
  br label %130

69:                                               ; preds = %10
  %70 = load ptr, ptr %11, align 8, !tbaa !3
  %71 = load ptr, ptr %12, align 8, !tbaa !8
  %72 = load i64, ptr %13, align 8, !tbaa !10
  %73 = load i32, ptr %14, align 4, !tbaa !12
  %74 = load ptr, ptr %15, align 8, !tbaa !14
  %75 = load ptr, ptr %16, align 8, !tbaa !8
  %76 = load ptr, ptr %17, align 8, !tbaa !14
  %77 = load ptr, ptr %19, align 8, !tbaa !16
  %78 = load ptr, ptr %20, align 8, !tbaa !8
  call void @BrotliCompressFragmentTwoPassImpl12(ptr noundef %70, ptr noundef %71, i64 noundef %72, i32 noundef %73, ptr noundef %74, ptr noundef %75, ptr noundef %76, ptr noundef %77, ptr noundef %78)
  br label %130

79:                                               ; preds = %10
  %80 = load ptr, ptr %11, align 8, !tbaa !3
  %81 = load ptr, ptr %12, align 8, !tbaa !8
  %82 = load i64, ptr %13, align 8, !tbaa !10
  %83 = load i32, ptr %14, align 4, !tbaa !12
  %84 = load ptr, ptr %15, align 8, !tbaa !14
  %85 = load ptr, ptr %16, align 8, !tbaa !8
  %86 = load ptr, ptr %17, align 8, !tbaa !14
  %87 = load ptr, ptr %19, align 8, !tbaa !16
  %88 = load ptr, ptr %20, align 8, !tbaa !8
  call void @BrotliCompressFragmentTwoPassImpl13(ptr noundef %80, ptr noundef %81, i64 noundef %82, i32 noundef %83, ptr noundef %84, ptr noundef %85, ptr noundef %86, ptr noundef %87, ptr noundef %88)
  br label %130

89:                                               ; preds = %10
  %90 = load ptr, ptr %11, align 8, !tbaa !3
  %91 = load ptr, ptr %12, align 8, !tbaa !8
  %92 = load i64, ptr %13, align 8, !tbaa !10
  %93 = load i32, ptr %14, align 4, !tbaa !12
  %94 = load ptr, ptr %15, align 8, !tbaa !14
  %95 = load ptr, ptr %16, align 8, !tbaa !8
  %96 = load ptr, ptr %17, align 8, !tbaa !14
  %97 = load ptr, ptr %19, align 8, !tbaa !16
  %98 = load ptr, ptr %20, align 8, !tbaa !8
  call void @BrotliCompressFragmentTwoPassImpl14(ptr noundef %90, ptr noundef %91, i64 noundef %92, i32 noundef %93, ptr noundef %94, ptr noundef %95, ptr noundef %96, ptr noundef %97, ptr noundef %98)
  br label %130

99:                                               ; preds = %10
  %100 = load ptr, ptr %11, align 8, !tbaa !3
  %101 = load ptr, ptr %12, align 8, !tbaa !8
  %102 = load i64, ptr %13, align 8, !tbaa !10
  %103 = load i32, ptr %14, align 4, !tbaa !12
  %104 = load ptr, ptr %15, align 8, !tbaa !14
  %105 = load ptr, ptr %16, align 8, !tbaa !8
  %106 = load ptr, ptr %17, align 8, !tbaa !14
  %107 = load ptr, ptr %19, align 8, !tbaa !16
  %108 = load ptr, ptr %20, align 8, !tbaa !8
  call void @BrotliCompressFragmentTwoPassImpl15(ptr noundef %100, ptr noundef %101, i64 noundef %102, i32 noundef %103, ptr noundef %104, ptr noundef %105, ptr noundef %106, ptr noundef %107, ptr noundef %108)
  br label %130

109:                                              ; preds = %10
  %110 = load ptr, ptr %11, align 8, !tbaa !3
  %111 = load ptr, ptr %12, align 8, !tbaa !8
  %112 = load i64, ptr %13, align 8, !tbaa !10
  %113 = load i32, ptr %14, align 4, !tbaa !12
  %114 = load ptr, ptr %15, align 8, !tbaa !14
  %115 = load ptr, ptr %16, align 8, !tbaa !8
  %116 = load ptr, ptr %17, align 8, !tbaa !14
  %117 = load ptr, ptr %19, align 8, !tbaa !16
  %118 = load ptr, ptr %20, align 8, !tbaa !8
  call void @BrotliCompressFragmentTwoPassImpl16(ptr noundef %110, ptr noundef %111, i64 noundef %112, i32 noundef %113, ptr noundef %114, ptr noundef %115, ptr noundef %116, ptr noundef %117, ptr noundef %118)
  br label %130

119:                                              ; preds = %10
  %120 = load ptr, ptr %11, align 8, !tbaa !3
  %121 = load ptr, ptr %12, align 8, !tbaa !8
  %122 = load i64, ptr %13, align 8, !tbaa !10
  %123 = load i32, ptr %14, align 4, !tbaa !12
  %124 = load ptr, ptr %15, align 8, !tbaa !14
  %125 = load ptr, ptr %16, align 8, !tbaa !8
  %126 = load ptr, ptr %17, align 8, !tbaa !14
  %127 = load ptr, ptr %19, align 8, !tbaa !16
  %128 = load ptr, ptr %20, align 8, !tbaa !8
  call void @BrotliCompressFragmentTwoPassImpl17(ptr noundef %120, ptr noundef %121, i64 noundef %122, i32 noundef %123, ptr noundef %124, ptr noundef %125, ptr noundef %126, ptr noundef %127, ptr noundef %128)
  br label %130

129:                                              ; preds = %10
  br label %130

130:                                              ; preds = %129, %119, %109, %99, %89, %79, %69, %59, %49, %39, %29
  %131 = load ptr, ptr %19, align 8, !tbaa !16
  %132 = load i64, ptr %131, align 8, !tbaa !10
  %133 = load i64, ptr %21, align 8, !tbaa !10
  %134 = sub i64 %132, %133
  %135 = load i64, ptr %13, align 8, !tbaa !10
  %136 = shl i64 %135, 3
  %137 = add i64 31, %136
  %138 = icmp ugt i64 %134, %137
  br i1 %138, label %139, label %147

139:                                              ; preds = %130
  %140 = load i64, ptr %21, align 8, !tbaa !10
  %141 = load ptr, ptr %19, align 8, !tbaa !16
  %142 = load ptr, ptr %20, align 8, !tbaa !8
  call void @RewindBitPosition(i64 noundef %140, ptr noundef %141, ptr noundef %142)
  %143 = load ptr, ptr %12, align 8, !tbaa !8
  %144 = load i64, ptr %13, align 8, !tbaa !10
  %145 = load ptr, ptr %19, align 8, !tbaa !16
  %146 = load ptr, ptr %20, align 8, !tbaa !8
  call void @EmitUncompressedMetaBlock(ptr noundef %143, i64 noundef %144, ptr noundef %145, ptr noundef %146)
  br label %147

147:                                              ; preds = %139, %130
  %148 = load i32, ptr %14, align 4, !tbaa !12
  %149 = icmp ne i32 %148, 0
  br i1 %149, label %150, label %160

150:                                              ; preds = %147
  %151 = load ptr, ptr %19, align 8, !tbaa !16
  %152 = load ptr, ptr %20, align 8, !tbaa !8
  call void @BrotliWriteBits(i64 noundef 1, i64 noundef 1, ptr noundef %151, ptr noundef %152)
  %153 = load ptr, ptr %19, align 8, !tbaa !16
  %154 = load ptr, ptr %20, align 8, !tbaa !8
  call void @BrotliWriteBits(i64 noundef 1, i64 noundef 1, ptr noundef %153, ptr noundef %154)
  %155 = load ptr, ptr %19, align 8, !tbaa !16
  %156 = load i64, ptr %155, align 8, !tbaa !10
  %157 = add i64 %156, 7
  %158 = and i64 %157, 4294967288
  %159 = load ptr, ptr %19, align 8, !tbaa !16
  store i64 %158, ptr %159, align 8, !tbaa !10
  br label %160

160:                                              ; preds = %150, %147
  call void @llvm.lifetime.end.p0(i64 8, ptr %22) #10
  call void @llvm.lifetime.end.p0(i64 8, ptr %21) #10
  ret void
}