; Function Attrs: nounwind uwtable
define hidden void @BrotliCompressFragmentTwoPass(ptr noundef %0, ptr noundef %1, i64 noundef %2, i32 noundef %3, ptr noundef %4, ptr noundef %5, ptr noundef captures(none) %6, i64 noundef %7, ptr noundef %8, ptr noundef %9) local_unnamed_addr #0 {
  %11 = load i64, ptr %8, align 8, !tbaa !3
  %12 = trunc i64 %7 to i32
  %13 = tail call range(i32 0, 33) i32 @llvm.ctlz.i32(i32 %12, i1 true)
  %14 = xor i32 %13, 31
  switch i32 %14, label %25 [
    i32 8, label %15
    i32 9, label %16
    i32 10, label %17
    i32 11, label %18
    i32 12, label %19
    i32 13, label %20
    i32 14, label %21
    i32 15, label %22
    i32 16, label %23
    i32 17, label %24
  ]

15:                                               ; preds = %10
  tail call fastcc void @BrotliCompressFragmentTwoPassImpl8(ptr noundef %0, ptr noundef %1, i64 noundef %2, ptr noundef %4, ptr noundef %5, ptr noundef %6, ptr noundef nonnull %8, ptr noundef %9)
  br label %25

16:                                               ; preds = %10
  tail call fastcc void @BrotliCompressFragmentTwoPassImpl9(ptr noundef %0, ptr noundef %1, i64 noundef %2, ptr noundef %4, ptr noundef %5, ptr noundef %6, ptr noundef nonnull %8, ptr noundef %9)
  br label %25

17:                                               ; preds = %10
  tail call fastcc void @BrotliCompressFragmentTwoPassImpl10(ptr noundef %0, ptr noundef %1, i64 noundef %2, ptr noundef %4, ptr noundef %5, ptr noundef %6, ptr noundef nonnull %8, ptr noundef %9)
  br label %25

18:                                               ; preds = %10
  tail call fastcc void @BrotliCompressFragmentTwoPassImpl11(ptr noundef %0, ptr noundef %1, i64 noundef %2, ptr noundef %4, ptr noundef %5, ptr noundef %6, ptr noundef nonnull %8, ptr noundef %9)
  br label %25

19:                                               ; preds = %10
  tail call fastcc void @BrotliCompressFragmentTwoPassImpl12(ptr noundef %0, ptr noundef %1, i64 noundef %2, ptr noundef %4, ptr noundef %5, ptr noundef %6, ptr noundef nonnull %8, ptr noundef %9)
  br label %25

20:                                               ; preds = %10
  tail call fastcc void @BrotliCompressFragmentTwoPassImpl13(ptr noundef %0, ptr noundef %1, i64 noundef %2, ptr noundef %4, ptr noundef %5, ptr noundef %6, ptr noundef nonnull %8, ptr noundef %9)
  br label %25

21:                                               ; preds = %10
  tail call fastcc void @BrotliCompressFragmentTwoPassImpl14(ptr noundef %0, ptr noundef %1, i64 noundef %2, ptr noundef %4, ptr noundef %5, ptr noundef %6, ptr noundef nonnull %8, ptr noundef %9)
  br label %25

22:                                               ; preds = %10
  tail call fastcc void @BrotliCompressFragmentTwoPassImpl15(ptr noundef %0, ptr noundef %1, i64 noundef %2, ptr noundef %4, ptr noundef %5, ptr noundef %6, ptr noundef nonnull %8, ptr noundef %9)
  br label %25

23:                                               ; preds = %10
  tail call fastcc void @BrotliCompressFragmentTwoPassImpl16(ptr noundef %0, ptr noundef %1, i64 noundef %2, ptr noundef %4, ptr noundef %5, ptr noundef %6, ptr noundef nonnull %8, ptr noundef %9)
  br label %25

24:                                               ; preds = %10
  tail call fastcc void @BrotliCompressFragmentTwoPassImpl17(ptr noundef %0, ptr noundef %1, i64 noundef %2, ptr noundef %4, ptr noundef %5, ptr noundef %6, ptr noundef nonnull %8, ptr noundef %9)
  br label %25

25:                                               ; preds = %10, %24, %23, %22, %21, %20, %19, %18, %17, %16, %15
  %26 = load i64, ptr %8, align 8, !tbaa !3
  %27 = sub i64 %26, %11
  %28 = shl i64 %2, 3
  %29 = add i64 %28, 31
  %30 = icmp ugt i64 %27, %29
  br i1 %30, label %31, label %78

31:                                               ; preds = %25
  %32 = trunc i64 %11 to i8
  %33 = and i8 %32, 7
  %notmask.i = shl nsw i8 -1, %33
  %34 = xor i8 %notmask.i, -1
  %35 = lshr i64 %11, 3
  %36 = getelementptr inbounds nuw i8, ptr %9, i64 %35
  %37 = load i8, ptr %36, align 1, !tbaa !7
  %38 = and i8 %37, %34
  store i8 %38, ptr %36, align 1, !tbaa !7
  store i64 %11, ptr %8, align 8, !tbaa !3
  tail call void @llvm.experimental.noalias.scope.decl(metadata !8)
  tail call void @llvm.experimental.noalias.scope.decl(metadata !11)
  %39 = load i8, ptr %36, align 1, !tbaa !7, !alias.scope !11, !noalias !8
  %40 = zext i8 %39 to i64
  store i64 %40, ptr %36, align 1, !noalias !8
  %41 = add i64 %11, 1
  store i64 %41, ptr %8, align 8, !tbaa !3, !alias.scope !8, !noalias !11
  %42 = icmp ult i64 %2, 65537
  %43 = icmp ult i64 %2, 1048577
  %spec.select.i.i = select i1 %43, i64 5, i64 6
  %.0.i.i = select i1 %42, i64 4, i64 %spec.select.i.i
  %44 = add nsw i64 %.0.i.i, -4
  tail call void @llvm.experimental.noalias.scope.decl(metadata !13)
  tail call void @llvm.experimental.noalias.scope.decl(metadata !16)
  %45 = lshr i64 %41, 3
  %46 = getelementptr inbounds nuw i8, ptr %9, i64 %45
  %47 = load i8, ptr %46, align 1, !tbaa !7, !alias.scope !16, !noalias !13
  %48 = zext i8 %47 to i64
  %49 = and i64 %41, 7
  %50 = shl nuw nsw i64 %44, %49
  %51 = or i64 %50, %48
  store i64 %51, ptr %46, align 1, !noalias !13
  %52 = add i64 %11, 3
  store i64 %52, ptr %8, align 8, !tbaa !3, !alias.scope !13, !noalias !16
  %53 = shl nuw nsw i64 %.0.i.i, 2
  %54 = add i64 %2, -1
  tail call void @llvm.experimental.noalias.scope.decl(metadata !18)
  tail call void @llvm.experimental.noalias.scope.decl(metadata !21)
  %55 = lshr i64 %52, 3
  %56 = getelementptr inbounds nuw i8, ptr %9, i64 %55
  %57 = load i8, ptr %56, align 1, !tbaa !7, !alias.scope !21, !noalias !18
  %58 = zext i8 %57 to i64
  %59 = and i64 %52, 7
  %60 = shl i64 %54, %59
  %61 = or i64 %60, %58
  store i64 %61, ptr %56, align 1, !noalias !18
  %62 = add i64 %52, %53
  store i64 %62, ptr %8, align 8, !tbaa !3, !alias.scope !18, !noalias !21
  %63 = lshr i64 %62, 3
  %64 = getelementptr inbounds nuw i8, ptr %9, i64 %63
  %65 = load i8, ptr %64, align 1, !tbaa !7, !alias.scope !23, !noalias !26
  %66 = zext i8 %65 to i64
  %67 = and i64 %62, 7
  %68 = shl nuw nsw i64 1, %67
  %69 = or i64 %68, %66
  store i64 %69, ptr %64, align 1, !noalias !26
  %70 = add i64 %62, 8
  %71 = and i64 %70, 4294967288
  store i64 %71, ptr %8, align 8, !tbaa !3
  %72 = lshr exact i64 %71, 3
  %73 = getelementptr inbounds nuw i8, ptr %9, i64 %72
  tail call void @llvm.memcpy.p0.p0.i64(ptr align 1 %73, ptr readonly align 1 %1, i64 %2, i1 false)
  %74 = load i64, ptr %8, align 8, !tbaa !3
  %75 = add i64 %74, %28
  store i64 %75, ptr %8, align 8, !tbaa !3
  %76 = lshr i64 %75, 3
  %77 = getelementptr inbounds nuw i8, ptr %9, i64 %76
  store i8 0, ptr %77, align 1, !tbaa !7
  br label %78

78:                                               ; preds = %31, %25
  %.not = icmp eq i32 %3, 0
  br i1 %.not, label %98, label %79

79:                                               ; preds = %78
  tail call void @llvm.experimental.noalias.scope.decl(metadata !28)
  tail call void @llvm.experimental.noalias.scope.decl(metadata !31)
  %80 = load i64, ptr %8, align 8, !tbaa !3, !alias.scope !28, !noalias !31
  %81 = lshr i64 %80, 3
  %82 = getelementptr inbounds nuw i8, ptr %9, i64 %81
  %83 = load i8, ptr %82, align 1, !tbaa !7, !alias.scope !31, !noalias !28
  %84 = zext i8 %83 to i64
  %85 = and i64 %80, 7
  %86 = shl nuw nsw i64 1, %85
  %87 = or i64 %86, %84
  store i64 %87, ptr %82, align 1, !noalias !28
  %88 = add i64 %80, 1
  store i64 %88, ptr %8, align 8, !tbaa !3, !alias.scope !28, !noalias !31
  %89 = lshr i64 %88, 3
  %90 = getelementptr inbounds nuw i8, ptr %9, i64 %89
  %91 = load i8, ptr %90, align 1, !tbaa !7, !alias.scope !33, !noalias !36
  %92 = zext i8 %91 to i64
  %93 = and i64 %88, 7
  %94 = shl nuw nsw i64 1, %93
  %95 = or i64 %94, %92
  store i64 %95, ptr %90, align 1, !noalias !36
  %96 = add i64 %80, 9
  %97 = and i64 %96, 4294967288
  store i64 %97, ptr %8, align 8, !tbaa !3
  br label %98

98:                                               ; preds = %79, %78
  ret void
}